target datalayout = "e-m:e-p270:32:32-p271:32:32-p272:64:64-i64:64-i128:128-f80:128-n8:16:32:64-S128"
target triple = "x86_64-pc-linux-gnu"

@Curl_cfree = external global ptr, align 8

; Function Attrs: nounwind uwtable
define dso_local void @Curl_cookie_cleanup(ptr noundef %0) #0 {
  %2 = alloca ptr, align 8
  store ptr %0, ptr %2, align 8, !tbaa !82
  %3 = load ptr, ptr %2, align 8, !tbaa !82
  %4 = icmp ne ptr %3, null
  br i1 %4, label %5, label %9

5:                                                ; preds = %1
  %6 = load ptr, ptr %2, align 8, !tbaa !82
  call void @Curl_cookie_clearall(ptr noundef %6)
  %7 = load ptr, ptr @Curl_cfree, align 8, !tbaa !93
  %8 = load ptr, ptr %2, align 8, !tbaa !82
  call void %7(ptr noundef %8)
  br label %9

9:                                                ; preds = %5, %1
  ret void
}